target datalayout = "e-m:e-p270:32:32-p271:32:32-p272:64:64-i64:64-i128:128-f80:128-n8:16:32:64-S128"
target triple = "x86_64-pc-linux-gnu"

%"class.icu_77::UObject" = type { ptr }
%"class.icu_77::UnicodeString" = type { %"class.icu_77::Replaceable", %"union.icu_77::UnicodeString::StackBufferOrFields" }
%"class.icu_77::Replaceable" = type { %"class.icu_77::UObject" }
%"union.icu_77::UnicodeString::StackBufferOrFields" = type { %struct.anon.0, [32 x i8] }
%struct.anon.0 = type { i16, i32, i32, ptr }
%"class.icu_77::StringPair" = type { [8 x i8], %"class.icu_77::UnicodeString", %"class.icu_77::UnicodeString" }

@_ZN6icu_7710StringPairC1ERKNS_13UnicodeStringES3_ = unnamed_addr alias void (ptr, ptr, ptr), ptr @_ZN6icu_7710StringPairC2ERKNS_13UnicodeStringES3_

; Function Attrs: inlinehint mustprogress nounwind uwtable
define linkonce_odr noundef signext i8 @_ZNK6icu_7713UnicodeString7isBogusEv(ptr noundef nonnull align 8 dereferenceable(64) %0) #1 comdat align 2 {
  %2 = alloca ptr, align 8
  store ptr %0, ptr %2, align 8, !tbaa !8
  %3 = load ptr, ptr %2, align 8
  %4 = getelementptr inbounds nuw %"class.icu_77::UnicodeString", ptr %3, i32 0, i32 1
  %5 = getelementptr inbounds nuw %struct.anon.0, ptr %4, i32 0, i32 0
  %6 = load i16, ptr %5, align 8, !tbaa !22
  %7 = sext i16 %6 to i32
  %8 = and i32 %7, 1
  %9 = trunc i32 %8 to i8
  ret i8 %9
}

; Function Attrs: inlinehint mustprogress nounwind uwtable
define linkonce_odr void @_ZN6icu_7710StringPairD2Ev(ptr noundef nonnull align 8 dereferenceable(136) %0) unnamed_addr #1 comdat align 2 {
  %2 = alloca ptr, align 8
  store ptr %0, ptr %2, align 8, !tbaa !47
  %3 = load ptr, ptr %2, align 8
  %4 = getelementptr inbounds nuw %"class.icu_77::StringPair", ptr %3, i32 0, i32 2
  call void @_ZN6icu_7713UnicodeStringD1Ev(ptr noundef nonnull align 8 dereferenceable(64) %4) #10
  %5 = getelementptr inbounds nuw %"class.icu_77::StringPair", ptr %3, i32 0, i32 1
  call void @_ZN6icu_7713UnicodeStringD1Ev(ptr noundef nonnull align 8 dereferenceable(64) %5) #10
  ret void
}

; Function Attrs: mustprogress uwtable
define noundef signext i8 @_ZNK6icu_7710StringPair7isBogusEv(ptr noundef nonnull align 8 dereferenceable(136) %0) #0 align 2 {
  %2 = alloca ptr, align 8
  store ptr %0, ptr %2, align 8, !tbaa !47
  %3 = load ptr, ptr %2, align 8
  %4 = getelementptr inbounds nuw %"class.icu_77::StringPair", ptr %3, i32 0, i32 1
  %5 = call noundef signext i8 @_ZNK6icu_7713UnicodeString7isBogusEv(ptr noundef nonnull align 8 dereferenceable(64) %4)
  %6 = icmp ne i8 %5, 0
  br i1 %6, label %11, label %7

7:                                                ; preds = %1
  %8 = getelementptr inbounds nuw %"class.icu_77::StringPair", ptr %3, i32 0, i32 2
  %9 = call noundef signext i8 @_ZNK6icu_7713UnicodeString7isBogusEv(ptr noundef nonnull align 8 dereferenceable(64) %8)
  %10 = icmp ne i8 %9, 0
  br label %11

11:                                               ; preds = %7, %1
  %12 = phi i1 [ true, %1 ], [ %10, %7 ]
  %13 = zext i1 %12 to i8
  ret i8 %13
}

; Function Attrs: inlinehint mustprogress nounwind uwtable
define internal noundef signext i8 @_ZL9U_SUCCESS10UErrorCode(i32 noundef %0) #1 {
  %2 = alloca i32, align 4
  store i32 %0, ptr %2, align 4, !tbaa !33
  %3 = load i32, ptr %2, align 4, !tbaa !33
  %4 = icmp sle i32 %3, 0
  %5 = zext i1 %4 to i8
  ret i8 %5
}

; Function Attrs: mustprogress uwtable
define noundef ptr @_ZN6icu_7710StringPair6createERKNS_13UnicodeStringES3_R10UErrorCode(ptr noundef nonnull align 8 dereferenceable(64) %0, ptr noundef nonnull align 8 dereferenceable(64) %1, ptr noundef nonnull align 4 dereferenceable(4) %2) #0 align 2 personality ptr @__gxx_personality_v0 {
  %4 = alloca ptr, align 8
  %5 = alloca ptr, align 8
  %6 = alloca ptr, align 8
  %7 = alloca ptr, align 8
  %8 = alloca ptr, align 8
  %9 = alloca ptr, align 8
  %10 = alloca i1, align 1
  %11 = alloca ptr, align 8
  %12 = alloca i32, align 4
  %13 = alloca i32, align 4
  store ptr %0, ptr %5, align 8, !tbaa !8
  store ptr %1, ptr %6, align 8, !tbaa !8
  store ptr %2, ptr %7, align 8, !tbaa !32
  %14 = load ptr, ptr %7, align 8, !tbaa !32
  %15 = load i32, ptr %14, align 4, !tbaa !33
  %16 = call noundef signext i8 @_ZL9U_SUCCESS10UErrorCode(i32 noundef %15)
  %17 = icmp ne i8 %16, 0
  br i1 %17, label %18, label %50

18:                                               ; preds = %3
  call void @llvm.lifetime.start.p0(i64 8, ptr %8) #10
  %19 = call noundef ptr @_ZN6icu_777UMemorynwEm(i64 noundef 136) #10
  %20 = icmp eq ptr %19, null
  store i1 false, ptr %10, align 1
  br i1 %20, label %25, label %21

21:                                               ; preds = %18
  store ptr %19, ptr %9, align 8
  store i1 true, ptr %10, align 1
  %22 = load ptr, ptr %5, align 8, !tbaa !8
  %23 = load ptr, ptr %6, align 8, !tbaa !8
  invoke void @_ZN6icu_7710StringPairC1ERKNS_13UnicodeStringES3_(ptr noundef nonnull align 8 dereferenceable(136) %19, ptr noundef nonnull align 8 dereferenceable(64) %22, ptr noundef nonnull align 8 dereferenceable(64) %23)
          to label %24 unwind label %39

24:                                               ; preds = %21
  br label %25

25:                                               ; preds = %24, %18
  %26 = phi ptr [ %19, %24 ], [ null, %18 ]
  store ptr %26, ptr %8, align 8, !tbaa !47
  %27 = load ptr, ptr %8, align 8, !tbaa !47
  %28 = icmp eq ptr %27, null
  br i1 %28, label %33, label %29

29:                                               ; preds = %25
  %30 = load ptr, ptr %8, align 8, !tbaa !47
  %31 = call noundef signext i8 @_ZNK6icu_7710StringPair7isBogusEv(ptr noundef nonnull align 8 dereferenceable(136) %30)
  %32 = icmp ne i8 %31, 0
  br i1 %32, label %33, label %47

33:                                               ; preds = %29, %25
  %34 = load ptr, ptr %7, align 8, !tbaa !32
  store i32 7, ptr %34, align 4, !tbaa !33
  %35 = load ptr, ptr %8, align 8, !tbaa !47
  %36 = icmp eq ptr %35, null
  br i1 %36, label %38, label %37

37:                                               ; preds = %33
  call void @_ZN6icu_7710StringPairD2Ev(ptr noundef nonnull align 8 dereferenceable(136) %35) #10
  call void @_ZN6icu_777UMemorydlEPv(ptr noundef %35) #10
  br label %38

38:                                               ; preds = %37, %33
  store ptr null, ptr %4, align 8
  store i32 1, ptr %13, align 4
  br label %49

39:                                               ; preds = %21
  %40 = landingpad { ptr, i32 }
          cleanup
  %41 = extractvalue { ptr, i32 } %40, 0
  store ptr %41, ptr %11, align 8
  %42 = extractvalue { ptr, i32 } %40, 1
  store i32 %42, ptr %12, align 4
  %43 = load i1, ptr %10, align 1
  br i1 %43, label %44, label %46

44:                                               ; preds = %39
  %45 = load ptr, ptr %9, align 8
  call void @_ZN6icu_777UMemorydlEPv(ptr noundef %45) #10
  br label %46

46:                                               ; preds = %44, %39
  call void @llvm.lifetime.end.p0(i64 8, ptr %8) #10
  br label %53

47:                                               ; preds = %29
  %48 = load ptr, ptr %8, align 8, !tbaa !47
  store ptr %48, ptr %4, align 8
  store i32 1, ptr %13, align 4
  br label %49

49:                                               ; preds = %47, %38
  call void @llvm.lifetime.end.p0(i64 8, ptr %8) #10
  br label %51

50:                                               ; preds = %3
  store ptr null, ptr %4, align 8
  br label %51

51:                                               ; preds = %50, %49
  %52 = load ptr, ptr %4, align 8
  ret ptr %52

53:                                               ; preds = %46
  %54 = load ptr, ptr %11, align 8
  %55 = load i32, ptr %12, align 4
  %56 = insertvalue { ptr, i32 } poison, ptr %54, 0
  %57 = insertvalue { ptr, i32 } %56, i32 %55, 1
  resume { ptr, i32 } %57
}