; Function Attrs: mustprogress uwtable
define noundef ptr @_ZN6icu_7710StringPair6createERKNS_13UnicodeStringES3_R10UErrorCode(ptr noundef nonnull align 8 dereferenceable(64) %0, ptr noundef nonnull align 8 dereferenceable(64) %1, ptr noundef nonnull align 4 captures(none) dereferenceable(4) %2) local_unnamed_addr #0 align 2 personality ptr @__gxx_personality_v0 {
  %4 = load i32, ptr %2, align 4, !tbaa !19
  %5 = icmp sgt i32 %4, 0
  br i1 %5, label %22, label %6

6:                                                ; preds = %3
  %7 = tail call noundef ptr @_ZN6icu_777UMemorynwEm(i64 noundef 136) #17
  %8 = icmp eq ptr %7, null
  br i1 %8, label %.critedge, label %9

9:                                                ; preds = %6
  invoke void @_ZN6icu_7710StringPairC1ERKNS_13UnicodeStringES3_(ptr noundef nonnull align 8 dereferenceable(136) %7, ptr noundef nonnull align 8 dereferenceable(64) %0, ptr noundef nonnull align 8 dereferenceable(64) %1)
          to label %10 unwind label %20

10:                                               ; preds = %9
  %11 = getelementptr inbounds nuw i8, ptr %7, i64 16
  %12 = load i16, ptr %11, align 8, !tbaa !6
  %13 = and i16 %12, 1
  %.not.i = icmp eq i16 %13, 0
  %14 = getelementptr inbounds nuw i8, ptr %7, i64 80
  %15 = load i16, ptr %14, align 8
  %16 = and i16 %15, 1
  %.not1516 = icmp eq i16 %16, 0
  %.not15 = select i1 %.not.i, i1 %.not1516, i1 false
  br i1 %.not15, label %22, label %17

17:                                               ; preds = %10
  store i32 7, ptr %2, align 4, !tbaa !19
  %18 = getelementptr inbounds nuw i8, ptr %7, i64 72
  tail call void @_ZN6icu_7713UnicodeStringD1Ev(ptr noundef nonnull align 8 dereferenceable(64) %18) #17
  %19 = getelementptr inbounds nuw i8, ptr %7, i64 8
  tail call void @_ZN6icu_7713UnicodeStringD1Ev(ptr noundef nonnull align 8 dereferenceable(64) %19) #17
  tail call void @_ZN6icu_777UMemorydlEPv(ptr noundef nonnull %7) #17
  br label %22

.critedge:                                        ; preds = %6
  store i32 7, ptr %2, align 4, !tbaa !19
  br label %22

20:                                               ; preds = %9
  %21 = landingpad { ptr, i32 }
          cleanup
  tail call void @_ZN6icu_777UMemorydlEPv(ptr noundef nonnull %7) #17
  resume { ptr, i32 } %21

22:                                               ; preds = %3, %.critedge, %17, %10
  %.1 = phi ptr [ null, %.critedge ], [ null, %17 ], [ %7, %10 ], [ null, %3 ]
  ret ptr %.1
}